target datalayout = "e-m:e-p270:32:32-p271:32:32-p272:64:64-i64:64-i128:128-f80:128-n8:16:32:64-S128"
target triple = "x86_64-pc-linux-gnu"

%struct.SDL_Camera = type { ptr, ptr, i32, %struct.SDL_AtomicInt, ptr, ptr, ptr, ptr, i32, %struct.SDL_CameraSpec, %struct.SDL_CameraSpec, i32, ptr, i32, i64, i64, ptr, ptr, [8 x %struct.SurfaceList], %struct.SurfaceList, %struct.SurfaceList, %struct.SurfaceList, ptr, i32, i8, %struct.SDL_AtomicInt, %struct.SDL_AtomicInt, ptr, i32, i32, ptr }
%struct.SDL_CameraSpec = type { i32, i32, i32, i32, i32, i32 }
%struct.SurfaceList = type { ptr, i64, ptr }
%struct.SDL_AtomicInt = type { i32 }
%struct.SDL_PrivateCameraData = type { i32, i32, i32, ptr, i32 }
%struct.buffer = type { ptr, i64, i32 }
%struct.timeval = type { i64, i64 }
%struct.v4l2_buffer = type { i32, i32, i32, i32, i32, %struct.timeval, %struct.v4l2_timecode, i32, i32, %union.anon.5, i32, i32, %union.anon.6 }
%struct.v4l2_timecode = type { i32, i32, i8, i8, i8, i8, [4 x i8] }
%union.anon.5 = type { i64 }
%union.anon.6 = type { i32 }

@.str.18 = private unnamed_addr constant [12 x i8] c"VIDIOC_QBUF\00", align 1

; Function Attrs: nounwind uwtable
define internal i32 @xioctl(i32 noundef %0, i32 noundef %1, ptr noundef %2) #0 {
  %4 = alloca i32, align 4
  %5 = alloca i32, align 4
  %6 = alloca ptr, align 8
  %7 = alloca i32, align 4
  store i32 %0, ptr %4, align 4
  store i32 %1, ptr %5, align 4
  store ptr %2, ptr %6, align 8
  call void @llvm.lifetime.start.p0(i64 4, ptr %7) #8
  br label %8

8:                                                ; preds = %21, %3
  %9 = load i32, ptr %4, align 4
  %10 = load i32, ptr %5, align 4
  %11 = sext i32 %10 to i64
  %12 = load ptr, ptr %6, align 8
  %13 = call i32 (i32, i64, ...) @ioctl(i32 noundef %9, i64 noundef %11, ptr noundef %12) #8
  store i32 %13, ptr %7, align 4
  br label %14

14:                                               ; preds = %8
  %15 = load i32, ptr %7, align 4
  %16 = icmp eq i32 %15, -1
  br i1 %16, label %17, label %21

17:                                               ; preds = %14
  %18 = call ptr @__errno_location() #9
  %19 = load i32, ptr %18, align 4
  %20 = icmp eq i32 %19, 4
  br label %21

21:                                               ; preds = %17, %14
  %22 = phi i1 [ false, %14 ], [ %20, %17 ]
  br i1 %22, label %8, label %23, !llvm.loop !19

23:                                               ; preds = %21
  %24 = load i32, ptr %7, align 4
  call void @llvm.lifetime.end.p0(i64 4, ptr %7) #8
  ret i32 %24
}

; Function Attrs: nounwind uwtable
define internal zeroext i1 @EnqueueBuffers(ptr noundef %0) #0 {
  %2 = alloca i1, align 1
  %3 = alloca ptr, align 8
  %4 = alloca i32, align 4
  %5 = alloca i32, align 4
  %6 = alloca i32, align 4
  %7 = alloca i32, align 4
  %8 = alloca %struct.v4l2_buffer, align 8
  %9 = alloca i32, align 4
  %10 = alloca %struct.v4l2_buffer, align 8
  store ptr %0, ptr %3, align 8
  call void @llvm.lifetime.start.p0(i64 4, ptr %4) #8
  %11 = load ptr, ptr %3, align 8
  %12 = getelementptr inbounds nuw %struct.SDL_Camera, ptr %11, i32 0, i32 30
  %13 = load ptr, ptr %12, align 8
  %14 = getelementptr inbounds nuw %struct.SDL_PrivateCameraData, ptr %13, i32 0, i32 0
  %15 = load i32, ptr %14, align 8
  store i32 %15, ptr %4, align 4
  call void @llvm.lifetime.start.p0(i64 4, ptr %5) #8
  %16 = load ptr, ptr %3, align 8
  %17 = getelementptr inbounds nuw %struct.SDL_Camera, ptr %16, i32 0, i32 30
  %18 = load ptr, ptr %17, align 8
  %19 = getelementptr inbounds nuw %struct.SDL_PrivateCameraData, ptr %18, i32 0, i32 1
  %20 = load i32, ptr %19, align 4
  store i32 %20, ptr %5, align 4
  %21 = load i32, ptr %5, align 4
  switch i32 %21, label %136 [
    i32 1, label %136
    i32 2, label %22
    i32 3, label %65
    i32 0, label %132
  ]

22:                                               ; preds = %1
  call void @llvm.lifetime.start.p0(i64 4, ptr %6) #8
  store i32 0, ptr %6, align 4
  br label %23

23:                                               ; preds = %59, %22
  %24 = load i32, ptr %6, align 4
  %25 = load ptr, ptr %3, align 8
  %26 = getelementptr inbounds nuw %struct.SDL_Camera, ptr %25, i32 0, i32 30
  %27 = load ptr, ptr %26, align 8
  %28 = getelementptr inbounds nuw %struct.SDL_PrivateCameraData, ptr %27, i32 0, i32 2
  %29 = load i32, ptr %28, align 8
  %30 = icmp slt i32 %24, %29
  br i1 %30, label %32, label %31

31:                                               ; preds = %23
  store i32 3, ptr %7, align 4
  br label %62

32:                                               ; preds = %23
  %33 = load ptr, ptr %3, align 8
  %34 = getelementptr inbounds nuw %struct.SDL_Camera, ptr %33, i32 0, i32 30
  %35 = load ptr, ptr %34, align 8
  %36 = getelementptr inbounds nuw %struct.SDL_PrivateCameraData, ptr %35, i32 0, i32 3
  %37 = load ptr, ptr %36, align 8
  %38 = load i32, ptr %6, align 4
  %39 = sext i32 %38 to i64
  %40 = getelementptr inbounds %struct.buffer, ptr %37, i64 %39
  %41 = getelementptr inbounds nuw %struct.buffer, ptr %40, i32 0, i32 2
  %42 = load i32, ptr %41, align 8
  %43 = icmp eq i32 %42, 0
  br i1 %43, label %44, label %58

44:                                               ; preds = %32
  call void @llvm.lifetime.start.p0(i64 88, ptr %8) #8
  call void @llvm.memset.p0.i64(ptr align 8 %8, i8 0, i64 88, i1 false)
  %45 = getelementptr inbounds nuw %struct.v4l2_buffer, ptr %8, i32 0, i32 1
  store i32 1, ptr %45, align 4
  %46 = getelementptr inbounds nuw %struct.v4l2_buffer, ptr %8, i32 0, i32 8
  store i32 1, ptr %46, align 4
  %47 = load i32, ptr %6, align 4
  %48 = getelementptr inbounds nuw %struct.v4l2_buffer, ptr %8, i32 0, i32 0
  store i32 %47, ptr %48, align 8
  %49 = load i32, ptr %4, align 4
  %50 = call i32 @xioctl(i32 noundef %49, i32 noundef -1067952625, ptr noundef %8)
  %51 = icmp eq i32 %50, -1
  br i1 %51, label %52, label %54

52:                                               ; preds = %44
  %53 = call zeroext i1 (ptr, ...) @SDL_SetError_REAL(ptr noundef @.str.18)
  store i1 %53, ptr %2, align 1
  store i32 1, ptr %7, align 4
  br label %55

54:                                               ; preds = %44
  store i32 0, ptr %7, align 4
  br label %55

55:                                               ; preds = %54, %52
  call void @llvm.lifetime.end.p0(i64 88, ptr %8) #8
  %56 = load i32, ptr %7, align 4
  switch i32 %56, label %62 [
    i32 0, label %57
  ]

57:                                               ; preds = %55
  br label %58

58:                                               ; preds = %57, %32
  br label %59

59:                                               ; preds = %58
  %60 = load i32, ptr %6, align 4
  %61 = add nsw i32 %60, 1
  store i32 %61, ptr %6, align 4
  br label %23, !llvm.loop !22

62:                                               ; preds = %55, %31
  call void @llvm.lifetime.end.p0(i64 4, ptr %6) #8
  %63 = load i32, ptr %7, align 4
  switch i32 %63, label %137 [
    i32 3, label %64
  ]

64:                                               ; preds = %62
  br label %136

65:                                               ; preds = %1
  call void @llvm.lifetime.start.p0(i64 4, ptr %9) #8
  store i32 0, ptr %9, align 4
  br label %66

66:                                               ; preds = %126, %65
  %67 = load i32, ptr %9, align 4
  %68 = load ptr, ptr %3, align 8
  %69 = getelementptr inbounds nuw %struct.SDL_Camera, ptr %68, i32 0, i32 30
  %70 = load ptr, ptr %69, align 8
  %71 = getelementptr inbounds nuw %struct.SDL_PrivateCameraData, ptr %70, i32 0, i32 2
  %72 = load i32, ptr %71, align 8
  %73 = icmp slt i32 %67, %72
  br i1 %73, label %75, label %74

74:                                               ; preds = %66
  store i32 6, ptr %7, align 4
  br label %129

75:                                               ; preds = %66
  %76 = load ptr, ptr %3, align 8
  %77 = getelementptr inbounds nuw %struct.SDL_Camera, ptr %76, i32 0, i32 30
  %78 = load ptr, ptr %77, align 8
  %79 = getelementptr inbounds nuw %struct.SDL_PrivateCameraData, ptr %78, i32 0, i32 3
  %80 = load ptr, ptr %79, align 8
  %81 = load i32, ptr %9, align 4
  %82 = sext i32 %81 to i64
  %83 = getelementptr inbounds %struct.buffer, ptr %80, i64 %82
  %84 = getelementptr inbounds nuw %struct.buffer, ptr %83, i32 0, i32 2
  %85 = load i32, ptr %84, align 8
  %86 = icmp eq i32 %85, 0
  br i1 %86, label %87, label %125

87:                                               ; preds = %75
  call void @llvm.lifetime.start.p0(i64 88, ptr %10) #8
  call void @llvm.memset.p0.i64(ptr align 8 %10, i8 0, i64 88, i1 false)
  %88 = getelementptr inbounds nuw %struct.v4l2_buffer, ptr %10, i32 0, i32 1
  store i32 1, ptr %88, align 4
  %89 = getelementptr inbounds nuw %struct.v4l2_buffer, ptr %10, i32 0, i32 8
  store i32 2, ptr %89, align 4
  %90 = load i32, ptr %9, align 4
  %91 = getelementptr inbounds nuw %struct.v4l2_buffer, ptr %10, i32 0, i32 0
  store i32 %90, ptr %91, align 8
  %92 = load ptr, ptr %3, align 8
  %93 = getelementptr inbounds nuw %struct.SDL_Camera, ptr %92, i32 0, i32 30
  %94 = load ptr, ptr %93, align 8
  %95 = getelementptr inbounds nuw %struct.SDL_PrivateCameraData, ptr %94, i32 0, i32 3
  %96 = load ptr, ptr %95, align 8
  %97 = load i32, ptr %9, align 4
  %98 = sext i32 %97 to i64
  %99 = getelementptr inbounds %struct.buffer, ptr %96, i64 %98
  %100 = getelementptr inbounds nuw %struct.buffer, ptr %99, i32 0, i32 0
  %101 = load ptr, ptr %100, align 8
  %102 = ptrtoint ptr %101 to i64
  %103 = getelementptr inbounds nuw %struct.v4l2_buffer, ptr %10, i32 0, i32 9
  store i64 %102, ptr %103, align 8
  %104 = load ptr, ptr %3, align 8
  %105 = getelementptr inbounds nuw %struct.SDL_Camera, ptr %104, i32 0, i32 30
  %106 = load ptr, ptr %105, align 8
  %107 = getelementptr inbounds nuw %struct.SDL_PrivateCameraData, ptr %106, i32 0, i32 3
  %108 = load ptr, ptr %107, align 8
  %109 = load i32, ptr %9, align 4
  %110 = sext i32 %109 to i64
  %111 = getelementptr inbounds %struct.buffer, ptr %108, i64 %110
  %112 = getelementptr inbounds nuw %struct.buffer, ptr %111, i32 0, i32 1
  %113 = load i64, ptr %112, align 8
  %114 = trunc i64 %113 to i32
  %115 = getelementptr inbounds nuw %struct.v4l2_buffer, ptr %10, i32 0, i32 10
  store i32 %114, ptr %115, align 8
  %116 = load i32, ptr %4, align 4
  %117 = call i32 @xioctl(i32 noundef %116, i32 noundef -1067952625, ptr noundef %10)
  %118 = icmp eq i32 %117, -1
  br i1 %118, label %119, label %121

119:                                              ; preds = %87
  %120 = call zeroext i1 (ptr, ...) @SDL_SetError_REAL(ptr noundef @.str.18)
  store i1 %120, ptr %2, align 1
  store i32 1, ptr %7, align 4
  br label %122

121:                                              ; preds = %87
  store i32 0, ptr %7, align 4
  br label %122

122:                                              ; preds = %121, %119
  call void @llvm.lifetime.end.p0(i64 88, ptr %10) #8
  %123 = load i32, ptr %7, align 4
  switch i32 %123, label %129 [
    i32 0, label %124
  ]

124:                                              ; preds = %122
  br label %125

125:                                              ; preds = %124, %75
  br label %126

126:                                              ; preds = %125
  %127 = load i32, ptr %9, align 4
  %128 = add nsw i32 %127, 1
  store i32 %128, ptr %9, align 4
  br label %66, !llvm.loop !23

129:                                              ; preds = %122, %74
  call void @llvm.lifetime.end.p0(i64 4, ptr %9) #8
  %130 = load i32, ptr %7, align 4
  switch i32 %130, label %137 [
    i32 6, label %131
  ]

131:                                              ; preds = %129
  br label %136

132:                                              ; preds = %1
  br label %133

133:                                              ; preds = %132
  br label %134

134:                                              ; preds = %133
  br label %135

135:                                              ; preds = %134
  br label %136

136:                                              ; preds = %1, %135, %131, %64, %1
  store i1 true, ptr %2, align 1
  store i32 1, ptr %7, align 4
  br label %137

137:                                              ; preds = %136, %129, %62
  call void @llvm.lifetime.end.p0(i64 4, ptr %5) #8
  call void @llvm.lifetime.end.p0(i64 4, ptr %4) #8
  %138 = load i1, ptr %2, align 1
  ret i1 %138
}