; Function Attrs: nounwind uwtable
define internal fastcc zeroext i1 @EnqueueBuffers(ptr noundef readonly captures(none) %0) unnamed_addr #1 {
  %2 = alloca %struct.v4l2_buffer, align 8
  %3 = alloca %struct.v4l2_buffer, align 8
  %4 = getelementptr inbounds nuw i8, ptr %0, i64 464
  %5 = load ptr, ptr %4, align 8
  %6 = load i32, ptr %5, align 8
  %7 = getelementptr inbounds nuw i8, ptr %5, i64 4
  %8 = load i32, ptr %7, align 4
  switch i32 %8, label %.thread [
    i32 3, label %.preheader
    i32 2, label %.preheader45
  ]

.preheader45:                                     ; preds = %1
  %9 = getelementptr inbounds nuw i8, ptr %5, i64 8
  %10 = load i32, ptr %9, align 8
  %.not3447 = icmp sgt i32 %10, 0
  br i1 %.not3447, label %.lr.ph, label %.thread

.lr.ph:                                           ; preds = %.preheader45
  %11 = getelementptr inbounds nuw i8, ptr %2, i64 4
  %12 = getelementptr inbounds nuw i8, ptr %2, i64 60
  %13 = getelementptr inbounds nuw i8, ptr %2, i64 8
  br label %21

.preheader:                                       ; preds = %1
  %14 = getelementptr inbounds nuw i8, ptr %5, i64 8
  %15 = load i32, ptr %14, align 8
  %.not3649 = icmp sgt i32 %15, 0
  br i1 %.not3649, label %.lr.ph51, label %.thread

.lr.ph51:                                         ; preds = %.preheader
  %16 = getelementptr inbounds nuw i8, ptr %3, i64 4
  %17 = getelementptr inbounds nuw i8, ptr %3, i64 60
  %18 = getelementptr inbounds nuw i8, ptr %3, i64 64
  %19 = getelementptr inbounds nuw i8, ptr %3, i64 72
  %20 = getelementptr inbounds nuw i8, ptr %3, i64 8
  br label %44

21:                                               ; preds = %.lr.ph, %37
  %22 = phi ptr [ %5, %.lr.ph ], [ %38, %37 ]
  %indvars.iv = phi i64 [ 0, %.lr.ph ], [ %indvars.iv.next, %37 ]
  %23 = getelementptr inbounds nuw i8, ptr %22, i64 16
  %24 = load ptr, ptr %23, align 8
  %25 = getelementptr inbounds nuw %struct.buffer, ptr %24, i64 %indvars.iv, i32 2
  %26 = load i32, ptr %25, align 8
  %27 = icmp eq i32 %26, 0
  br i1 %27, label %28, label %37

28:                                               ; preds = %21
  call void @llvm.lifetime.start.p0(i64 88, ptr nonnull %2) #11
  call void @llvm.memset.p0.i64(ptr noundef nonnull align 8 dereferenceable(80) %13, i8 0, i64 80, i1 false)
  store i32 1, ptr %11, align 4
  store i32 1, ptr %12, align 4
  %29 = trunc nuw nsw i64 %indvars.iv to i32
  store i32 %29, ptr %2, align 8
  br label %30

30:                                               ; preds = %33, %28
  %31 = call i32 (i32, i64, ...) @ioctl(i32 noundef %6, i64 noundef -1067952625, ptr noundef nonnull %2) #11
  %32 = icmp eq i32 %31, -1
  br i1 %32, label %33, label %xioctl.exit

33:                                               ; preds = %30
  %34 = tail call ptr @__errno_location() #12
  %35 = load i32, ptr %34, align 4
  %36 = icmp eq i32 %35, 4
  br i1 %36, label %30, label %42, !llvm.loop !5

xioctl.exit:                                      ; preds = %30
  call void @llvm.lifetime.end.p0(i64 88, ptr nonnull %2) #11
  %.pre = load ptr, ptr %4, align 8
  br label %37

37:                                               ; preds = %xioctl.exit, %21
  %38 = phi ptr [ %.pre, %xioctl.exit ], [ %22, %21 ]
  %indvars.iv.next = add nuw nsw i64 %indvars.iv, 1
  %39 = getelementptr inbounds nuw i8, ptr %38, i64 8
  %40 = load i32, ptr %39, align 8
  %41 = sext i32 %40 to i64
  %.not34 = icmp slt i64 %indvars.iv.next, %41
  br i1 %.not34, label %21, label %.thread, !llvm.loop !19

42:                                               ; preds = %33
  %43 = call zeroext i1 (ptr, ...) @SDL_SetError_REAL(ptr noundef nonnull @.str.18) #11
  call void @llvm.lifetime.end.p0(i64 88, ptr nonnull %2) #11
  br label %.thread

44:                                               ; preds = %.lr.ph51, %68
  %45 = phi ptr [ %5, %.lr.ph51 ], [ %69, %68 ]
  %indvars.iv54 = phi i64 [ 0, %.lr.ph51 ], [ %indvars.iv.next55, %68 ]
  %46 = getelementptr inbounds nuw i8, ptr %45, i64 16
  %47 = load ptr, ptr %46, align 8
  %48 = getelementptr inbounds nuw %struct.buffer, ptr %47, i64 %indvars.iv54, i32 2
  %49 = load i32, ptr %48, align 8
  %50 = icmp eq i32 %49, 0
  br i1 %50, label %51, label %68

51:                                               ; preds = %44
  call void @llvm.lifetime.start.p0(i64 88, ptr nonnull %3) #11
  call void @llvm.memset.p0.i64(ptr noundef nonnull align 8 dereferenceable(80) %20, i8 0, i64 80, i1 false)
  store i32 1, ptr %16, align 4
  store i32 2, ptr %17, align 4
  %52 = trunc nuw nsw i64 %indvars.iv54 to i32
  store i32 %52, ptr %3, align 8
  %53 = load ptr, ptr %46, align 8
  %54 = getelementptr inbounds nuw %struct.buffer, ptr %53, i64 %indvars.iv54
  %55 = load ptr, ptr %54, align 8
  %56 = ptrtoint ptr %55 to i64
  store i64 %56, ptr %18, align 8
  %57 = load ptr, ptr %46, align 8
  %58 = getelementptr inbounds nuw %struct.buffer, ptr %57, i64 %indvars.iv54, i32 1
  %59 = load i64, ptr %58, align 8
  %60 = trunc i64 %59 to i32
  store i32 %60, ptr %19, align 8
  br label %61

61:                                               ; preds = %64, %51
  %62 = call i32 (i32, i64, ...) @ioctl(i32 noundef %6, i64 noundef -1067952625, ptr noundef nonnull %3) #11
  %63 = icmp eq i32 %62, -1
  br i1 %63, label %64, label %xioctl.exit37

64:                                               ; preds = %61
  %65 = tail call ptr @__errno_location() #12
  %66 = load i32, ptr %65, align 4
  %67 = icmp eq i32 %66, 4
  br i1 %67, label %61, label %73, !llvm.loop !5

xioctl.exit37:                                    ; preds = %61
  call void @llvm.lifetime.end.p0(i64 88, ptr nonnull %3) #11
  %.pre57 = load ptr, ptr %4, align 8
  br label %68

68:                                               ; preds = %xioctl.exit37, %44
  %69 = phi ptr [ %.pre57, %xioctl.exit37 ], [ %45, %44 ]
  %indvars.iv.next55 = add nuw nsw i64 %indvars.iv54, 1
  %70 = getelementptr inbounds nuw i8, ptr %69, i64 8
  %71 = load i32, ptr %70, align 8
  %72 = sext i32 %71 to i64
  %.not36 = icmp slt i64 %indvars.iv.next55, %72
  br i1 %.not36, label %44, label %.thread, !llvm.loop !20

73:                                               ; preds = %64
  %74 = call zeroext i1 (ptr, ...) @SDL_SetError_REAL(ptr noundef nonnull @.str.18) #11
  call void @llvm.lifetime.end.p0(i64 88, ptr nonnull %3) #11
  br label %.thread

.thread:                                          ; preds = %37, %68, %.preheader45, %.preheader, %1, %73, %42
  %.4 = phi i1 [ %43, %42 ], [ %74, %73 ], [ true, %1 ], [ true, %.preheader ], [ true, %.preheader45 ], [ true, %68 ], [ true, %37 ]
  ret i1 %.4
}